target datalayout = "e-m:e-p270:32:32-p271:32:32-p272:64:64-i64:64-i128:128-f80:128-n8:16:32:64-S128"
target triple = "x86_64-pc-linux-gnu"

%class.QString = type { %struct.QArrayDataPointer }
%struct.QArrayDataPointer = type { ptr, ptr, i64 }
%class.QEvent = type { ptr, i16, i8, i8, i8, i8, i16 }
%class.QKeyEvent = type <{ %class.QInputEvent, %class.QString, i32, i32, i32, i32, i16, [6 x i8] }>
%class.QInputEvent = type { %class.QEvent, ptr, i64, %class.QFlags.86, i32 }
%class.QFlags.86 = type { i32 }

; Function Attrs: mustprogress nounwind null_pointer_is_valid sspstrong uwtable
define linkonce_odr noundef i32 @_ZNK9QKeyEvent3keyEv(ptr noundef align 8 dereferenceable_or_null(82) %0) #3 comdat align 2 {
  %2 = alloca ptr, align 8
  store ptr %0, ptr %2, align 8
  %3 = load ptr, ptr %2, align 8
  %4 = getelementptr inbounds nuw %class.QKeyEvent, ptr %3, i32 0, i32 2
  %5 = load i32, ptr %4, align 8
  ret i32 %5
}

; Function Attrs: inlinehint mustprogress nounwind null_pointer_is_valid sspstrong uwtable
define linkonce_odr noundef i32 @_ZNK6QEvent4typeEv(ptr noundef align 8 dereferenceable_or_null(16) %0) #4 comdat align 2 {
  %2 = alloca ptr, align 8
  store ptr %0, ptr %2, align 8
  %3 = load ptr, ptr %2, align 8
  %4 = getelementptr inbounds nuw %class.QEvent, ptr %3, i32 0, i32 1
  %5 = load i16, ptr %4, align 8
  %6 = zext i16 %5 to i32
  ret i32 %6
}

; Function Attrs: mustprogress null_pointer_is_valid sspstrong uwtable
define noundef zeroext i1 @_ZN18Iax2AnalysisDialog11eventFilterEP7QObjectP6QEvent(ptr noundef align 8 dereferenceable_or_null(10448) %0, ptr noundef %1, ptr noundef %2) unnamed_addr #0 align 2 {
  %4 = alloca i1, align 1
  %5 = alloca ptr, align 8
  %6 = alloca ptr, align 8
  %7 = alloca ptr, align 8
  %8 = alloca ptr, align 8
  %9 = alloca i32, align 4
  store ptr %0, ptr %5, align 8
  store ptr %1, ptr %6, align 8
  store ptr %2, ptr %7, align 8
  %10 = load ptr, ptr %5, align 8
  %11 = load ptr, ptr %7, align 8
  %12 = call noundef i32 @_ZNK6QEvent4typeEv(ptr noundef align 8 dereferenceable_or_null(16) %11)
  %13 = icmp ne i32 %12, 6
  br i1 %13, label %14, label %15

14:                                               ; preds = %3
  store i1 false, ptr %4, align 1
  br label %24

15:                                               ; preds = %3
  call void @llvm.lifetime.start.p0(i64 8, ptr %8) #24
  %16 = load ptr, ptr %7, align 8
  store ptr %16, ptr %8, align 8
  %17 = load ptr, ptr %8, align 8
  %18 = call noundef i32 @_ZNK9QKeyEvent3keyEv(ptr noundef align 8 dereferenceable_or_null(82) %17)
  switch i32 %18, label %21 [
    i32 71, label %19
    i32 78, label %20
  ]

19:                                               ; preds = %15
  call void @_ZN18Iax2AnalysisDialog29on_actionGoToPacket_triggeredEv(ptr noundef align 8 dereferenceable_or_null(10448) %10)
  store i1 true, ptr %4, align 1
  store i32 1, ptr %9, align 4
  br label %23

20:                                               ; preds = %15
  call void @_ZN18Iax2AnalysisDialog30on_actionNextProblem_triggeredEv(ptr noundef align 8 dereferenceable_or_null(10448) %10)
  store i1 true, ptr %4, align 1
  store i32 1, ptr %9, align 4
  br label %23

21:                                               ; preds = %15
  br label %22

22:                                               ; preds = %21
  store i1 false, ptr %4, align 1
  store i32 1, ptr %9, align 4
  br label %23

23:                                               ; preds = %22, %20, %19
  call void @llvm.lifetime.end.p0(i64 8, ptr %8) #24
  br label %24

24:                                               ; preds = %23, %14
  %25 = load i1, ptr %4, align 1
  ret i1 %25
}