; Function Attrs: mustprogress null_pointer_is_valid sspstrong uwtable
define noundef zeroext i1 @_ZN18Iax2AnalysisDialog11eventFilterEP7QObjectP6QEvent(ptr noundef align 8 dereferenceable_or_null(10448) %0, ptr noundef readnone captures(none) %1, ptr noundef readonly captures(none) %2) unnamed_addr #0 align 2 {
  %4 = getelementptr inbounds nuw i8, ptr %2, i64 8
  %5 = load i16, ptr %4, align 8
  %.not = icmp eq i16 %5, 6
  br i1 %.not, label %6, label %11

6:                                                ; preds = %3
  %7 = getelementptr inbounds nuw i8, ptr %2, i64 64
  %8 = load i32, ptr %7, align 8
  switch i32 %8, label %11 [
    i32 71, label %9
    i32 78, label %10
  ]

9:                                                ; preds = %6
  tail call void @_ZN18Iax2AnalysisDialog29on_actionGoToPacket_triggeredEv(ptr noundef align 8 dereferenceable_or_null(10448) %0)
  br label %11

10:                                               ; preds = %6
  tail call void @_ZN18Iax2AnalysisDialog30on_actionNextProblem_triggeredEv(ptr noundef align 8 dereferenceable_or_null(10448) %0)
  br label %11

11:                                               ; preds = %9, %10, %6, %3
  %.0 = phi i1 [ false, %3 ], [ true, %10 ], [ true, %9 ], [ false, %6 ]
  ret i1 %.0
}